target datalayout = "e-m:e-p270:32:32-p271:32:32-p272:64:64-i64:64-i128:128-f80:128-n8:16:32:64-S128"
target triple = "x86_64-pc-linux-gnu"

%struct._psqlSettings = type { ptr, i32, ptr, i8, ptr, ptr, %struct.printQueryOpt, ptr, ptr, ptr, i8, i8, i32, i32, ptr, ptr, i8, [4 x ptr], i8, i32, ptr, i8, i32, ptr, ptr, i64, i64, i8, ptr, ptr, ptr, i8, i8, i8, i8, i8, i8, i8, i32, i32, i32, i32, i32, i32, i32, i32, ptr, ptr, ptr, i32, i8, i32 }
%struct.printQueryOpt = type { %struct.printTableOpt, ptr, ptr, ptr, i8, ptr, i32 }
%struct.printTableOpt = type { i32, i16, i32, i32, i16, i16, i32, i8, i8, i8, i8, i64, ptr, %struct.separator, %struct.separator, [2 x i8], i8, ptr, i32, i32, i32, i32, i32, i32 }
%struct.separator = type { ptr, i8 }
%struct.PQExpBufferData = type { ptr, i64, i64 }

@pset = external global %struct._psqlSettings, align 8
@.str.1 = private unnamed_addr constant [7 x i8] c"Schema\00", align 1
@.str.6 = private unnamed_addr constant [12 x i8] c"Description\00", align 1
@.str.9 = private unnamed_addr constant [10 x i8] c"n.nspname\00", align 1
@.str.17 = private unnamed_addr constant [6 x i8] c"Table\00", align 1
@.str.111 = private unnamed_addr constant [15 x i8] c"ORDER BY 1, 2;\00", align 1
@.str.165 = private unnamed_addr constant [10 x i8] c"c.relname\00", align 1
@.str.166 = private unnamed_addr constant [38 x i8] c"pg_catalog.pg_table_is_visible(c.oid)\00", align 1
@.str.295 = private unnamed_addr constant [23 x i8] c"List of foreign tables\00", align 1
@.str.474 = private unnamed_addr constant [12 x i8] c"FDW options\00", align 1
@.str.489 = private unnamed_addr constant [7 x i8] c"Server\00", align 1
@.str.496 = private unnamed_addr constant [67 x i8] c"SELECT n.nspname AS \22%s\22,\0A  c.relname AS \22%s\22,\0A  s.srvname AS \22%s\22\00", align 1
@.str.499 = private unnamed_addr constant [119 x i8] c"   LEFT JOIN pg_catalog.pg_description d\0A          ON d.classoid = c.tableoid AND d.objoid = c.oid AND d.objsubid = 0\0A\00", align 1

; Function Attrs: nounwind uwtable
define dso_local zeroext i1 @listForeignTables(ptr noundef %0, i1 noundef zeroext %1) #0 {
  %3 = alloca i1, align 1
  %4 = alloca ptr, align 8
  %5 = alloca i8, align 1
  %6 = alloca %struct.PQExpBufferData, align 8
  %7 = alloca ptr, align 8
  %8 = alloca %struct.printQueryOpt, align 8
  %9 = alloca i32, align 4
  store ptr %0, ptr %4, align 8
  %10 = zext i1 %1 to i8
  store i8 %10, ptr %5, align 1
  call void @llvm.lifetime.start.p0(i64 24, ptr %6) #8
  call void @llvm.lifetime.start.p0(i64 8, ptr %7) #8
  call void @llvm.lifetime.start.p0(i64 168, ptr %8) #8
  call void @llvm.memcpy.p0.p0.i64(ptr align 8 %8, ptr align 8 getelementptr inbounds nuw (%struct._psqlSettings, ptr @pset, i32 0, i32 6), i64 168, i1 false)
  call void @initPQExpBuffer(ptr noundef %6)
  call void (ptr, ptr, ...) @printfPQExpBuffer(ptr noundef %6, ptr noundef @.str.496, ptr noundef @.str.1, ptr noundef @.str.17, ptr noundef @.str.489)
  %11 = load i8, ptr %5, align 1, !range !4, !noundef !5
  %12 = trunc i8 %11 to i1
  br i1 %12, label %13, label %14

13:                                               ; preds = %2
  call void (ptr, ptr, ...) @appendPQExpBuffer(ptr noundef %6, ptr noundef @.str.497, ptr noundef @.str.474, ptr noundef @.str.6)
  br label %14

14:                                               ; preds = %13, %2
  call void @appendPQExpBufferStr(ptr noundef %6, ptr noundef @.str.498)
  %15 = load i8, ptr %5, align 1, !range !4, !noundef !5
  %16 = trunc i8 %15 to i1
  br i1 %16, label %17, label %18

17:                                               ; preds = %14
  call void @appendPQExpBufferStr(ptr noundef %6, ptr noundef @.str.499)
  br label %18

18:                                               ; preds = %17, %14
  %19 = load ptr, ptr %4, align 8
  %20 = call zeroext i1 @validateSQLNamePattern(ptr noundef %6, ptr noundef %19, i1 noundef zeroext false, i1 noundef zeroext false, ptr noundef @.str.9, ptr noundef @.str.165, ptr noundef null, ptr noundef @.str.166, ptr noundef null, i32 noundef 3)
  br i1 %20, label %22, label %21

21:                                               ; preds = %18
  call void @termPQExpBuffer(ptr noundef %6)
  store i1 false, ptr %3, align 1
  store i32 1, ptr %9, align 4
  br label %36

22:                                               ; preds = %18
  call void @appendPQExpBufferStr(ptr noundef %6, ptr noundef @.str.111)
  %23 = getelementptr inbounds nuw %struct.PQExpBufferData, ptr %6, i32 0, i32 0
  %24 = load ptr, ptr %23, align 8
  %25 = call ptr @PSQLexec(ptr noundef %24)
  store ptr %25, ptr %7, align 8
  call void @termPQExpBuffer(ptr noundef %6)
  %26 = load ptr, ptr %7, align 8
  %27 = icmp ne ptr %26, null
  br i1 %27, label %29, label %28

28:                                               ; preds = %22
  store i1 false, ptr %3, align 1
  store i32 1, ptr %9, align 4
  br label %36

29:                                               ; preds = %22
  %30 = getelementptr inbounds nuw %struct.printQueryOpt, ptr %8, i32 0, i32 2
  store ptr @.str.295, ptr %30, align 8
  %31 = getelementptr inbounds nuw %struct.printQueryOpt, ptr %8, i32 0, i32 4
  store i8 1, ptr %31, align 8
  %32 = load ptr, ptr %7, align 8
  %33 = load ptr, ptr getelementptr inbounds nuw (%struct._psqlSettings, ptr @pset, i32 0, i32 2), align 8
  %34 = load ptr, ptr getelementptr inbounds nuw (%struct._psqlSettings, ptr @pset, i32 0, i32 28), align 8
  call void @printQuery(ptr noundef %32, ptr noundef %8, ptr noundef %33, i1 noundef zeroext false, ptr noundef %34)
  %35 = load ptr, ptr %7, align 8
  call void @PQclear(ptr noundef %35)
  store i1 true, ptr %3, align 1
  store i32 1, ptr %9, align 4
  br label %36

36:                                               ; preds = %29, %28, %21
  call void @llvm.lifetime.end.p0(i64 168, ptr %8) #8
  call void @llvm.lifetime.end.p0(i64 8, ptr %7) #8
  call void @llvm.lifetime.end.p0(i64 24, ptr %6) #8
  %37 = load i1, ptr %3, align 1
  ret i1 %37
}