; Function Attrs: nounwind uwtable
define dso_local noundef zeroext i1 @listForeignTables(ptr noundef %0, i1 noundef zeroext %1) local_unnamed_addr #0 {
  %3 = alloca %struct.PQExpBufferData, align 8
  %4 = alloca %struct.printQueryOpt, align 8
  call void @llvm.lifetime.start.p0(i64 24, ptr nonnull %3) #8
  call void @llvm.lifetime.start.p0(i64 168, ptr nonnull %4) #8
  call void @llvm.memcpy.p0.p0.i64(ptr noundef nonnull align 8 dereferenceable(168) %4, ptr noundef nonnull align 8 dereferenceable(168) getelementptr inbounds nuw (i8, ptr @pset, i64 48), i64 168, i1 false)
  call void @initPQExpBuffer(ptr noundef nonnull %3) #8
  call void (ptr, ptr, ...) @printfPQExpBuffer(ptr noundef nonnull %3, ptr noundef nonnull @.str.496, ptr noundef nonnull @.str.1, ptr noundef nonnull @.str.17, ptr noundef nonnull @.str.489) #8
  br i1 %1, label %5, label %.critedge

5:                                                ; preds = %2
  call void (ptr, ptr, ...) @appendPQExpBuffer(ptr noundef nonnull %3, ptr noundef nonnull @.str.497, ptr noundef nonnull @.str.474, ptr noundef nonnull @.str.6) #8
  call void @appendPQExpBufferStr(ptr noundef nonnull %3, ptr noundef nonnull @.str.498) #8
  br label %.critedge

.critedge:                                        ; preds = %2, %5
  %.str.498.sink = phi ptr [ @.str.499, %5 ], [ @.str.498, %2 ]
  call void @appendPQExpBufferStr(ptr noundef nonnull %3, ptr noundef nonnull %.str.498.sink) #8
  %6 = call fastcc zeroext i1 @validateSQLNamePattern(ptr noundef %3, ptr noundef %0, i1 noundef zeroext false, i1 noundef zeroext false, ptr noundef nonnull @.str.9, ptr noundef nonnull @.str.165, ptr noundef null, ptr noundef nonnull @.str.166, ptr noundef null, i32 noundef 3)
  br i1 %6, label %8, label %7

7:                                                ; preds = %.critedge
  call void @termPQExpBuffer(ptr noundef nonnull %3) #8
  br label %16

8:                                                ; preds = %.critedge
  call void @appendPQExpBufferStr(ptr noundef nonnull %3, ptr noundef nonnull @.str.111) #8
  %9 = load ptr, ptr %3, align 8
  %10 = call ptr @PSQLexec(ptr noundef %9) #8
  call void @termPQExpBuffer(ptr noundef nonnull %3) #8
  %.not = icmp eq ptr %10, null
  br i1 %.not, label %16, label %11

11:                                               ; preds = %8
  %12 = getelementptr inbounds nuw i8, ptr %4, i64 128
  store ptr @.str.295, ptr %12, align 8
  %13 = getelementptr inbounds nuw i8, ptr %4, i64 144
  store i8 1, ptr %13, align 8
  %14 = load ptr, ptr getelementptr inbounds nuw (i8, ptr @pset, i64 16), align 8
  %15 = load ptr, ptr getelementptr inbounds nuw (i8, ptr @pset, i64 376), align 8
  call void @printQuery(ptr noundef nonnull %10, ptr noundef nonnull %4, ptr noundef %14, i1 noundef zeroext false, ptr noundef %15) #8
  call void @PQclear(ptr noundef nonnull %10) #8
  br label %16

16:                                               ; preds = %8, %11, %7
  %.0 = phi i1 [ true, %11 ], [ false, %7 ], [ false, %8 ]
  call void @llvm.lifetime.end.p0(i64 168, ptr nonnull %4) #8
  call void @llvm.lifetime.end.p0(i64 24, ptr nonnull %3) #8
  ret i1 %.0
}